; Function Attrs: nounwind uwtable
define hidden ptr @ckUTF8CharArrayToJCharArray(ptr noundef %0, ptr nocapture noundef readonly %1, i64 noundef %2) local_unnamed_addr #0 {
  %4 = tail call noalias ptr @calloc(i64 noundef %2, i64 noundef 2) #16
  %5 = icmp eq ptr %4, null
  %6 = icmp ne i64 %2, 0
  %or.cond = and i1 %6, %5
  br i1 %or.cond, label %7, label %.preheader

.preheader:                                       ; preds = %3
  %.not27 = icmp eq i64 %2, 0
  br i1 %.not27, label %._crit_edge, label %.lr.ph

7:                                                ; preds = %3
  %8 = load ptr, ptr %0, align 8
  %9 = getelementptr inbounds i8, ptr %8, i64 48
  %10 = load ptr, ptr %9, align 8
  %11 = tail call ptr %10(ptr noundef nonnull %0, ptr noundef nonnull @.str.5) #15
  %.not.i.i = icmp eq ptr %11, null
  br i1 %.not.i.i, label %p11ThrowOutOfMemoryError.exit, label %12

12:                                               ; preds = %7
  %13 = load ptr, ptr %0, align 8
  %14 = getelementptr inbounds i8, ptr %13, i64 112
  %15 = load ptr, ptr %14, align 8
  %16 = tail call i32 %15(ptr noundef nonnull %0, ptr noundef nonnull %11, ptr noundef null) #15
  br label %p11ThrowOutOfMemoryError.exit

.lr.ph:                                           ; preds = %.preheader, %.lr.ph
  %.02326 = phi i64 [ %21, %.lr.ph ], [ 0, %.preheader ]
  %17 = getelementptr inbounds i8, ptr %1, i64 %.02326
  %18 = load i8, ptr %17, align 1
  %19 = zext i8 %18 to i16
  %20 = getelementptr inbounds i16, ptr %4, i64 %.02326
  store i16 %19, ptr %20, align 2
  %21 = add nuw i64 %.02326, 1
  %exitcond.not = icmp eq i64 %21, %2
  br i1 %exitcond.not, label %._crit_edge, label %.lr.ph, !llvm.loop !14

._crit_edge:                                      ; preds = %.lr.ph, %.preheader
  %22 = load ptr, ptr %0, align 8
  %23 = getelementptr inbounds i8, ptr %22, i64 1416
  %24 = load ptr, ptr %23, align 8
  %25 = trunc i64 %2 to i32
  %26 = tail call ptr %24(ptr noundef nonnull %0, i32 noundef %25) #15
  %.not = icmp eq ptr %26, null
  br i1 %.not, label %31, label %27

27:                                               ; preds = %._crit_edge
  %28 = load ptr, ptr %0, align 8
  %29 = getelementptr inbounds i8, ptr %28, i64 1672
  %30 = load ptr, ptr %29, align 8
  tail call void %30(ptr noundef nonnull %0, ptr noundef nonnull %26, i32 noundef 0, i32 noundef %25, ptr noundef %4) #15
  br label %31

31:                                               ; preds = %27, %._crit_edge
  tail call void @free(ptr noundef %4) #15
  br label %p11ThrowOutOfMemoryError.exit

p11ThrowOutOfMemoryError.exit:                    ; preds = %12, %7, %31
  %.0 = phi ptr [ %26, %31 ], [ null, %7 ], [ null, %12 ]
  ret ptr %.0
}